target datalayout = "e-m:e-p270:32:32-p271:32:32-p272:64:64-i64:64-i128:128-f80:128-n8:16:32:64-S128"
target triple = "x86_64-pc-linux-gnu"

%struct.DigColaLevel = type { ptr, i32 }

; Function Attrs: nounwind uwtable
define i32 @get_num_digcola_constraints(ptr noundef %0, i32 noundef %1) #0 {
  %3 = alloca ptr, align 8
  %4 = alloca i32, align 4
  %5 = alloca i32, align 4
  %6 = alloca i32, align 4
  store ptr %0, ptr %3, align 8, !tbaa !49
  store i32 %1, ptr %4, align 4, !tbaa !10
  call void @llvm.lifetime.start.p0(i64 4, ptr %5) #9
  call void @llvm.lifetime.start.p0(i64 4, ptr %6) #9
  store i32 0, ptr %6, align 4, !tbaa !10
  store i32 1, ptr %5, align 4, !tbaa !10
  br label %7

7:                                                ; preds = %28, %2
  %8 = load i32, ptr %5, align 4, !tbaa !10
  %9 = load i32, ptr %4, align 4, !tbaa !10
  %10 = icmp slt i32 %8, %9
  br i1 %10, label %11, label %31

11:                                               ; preds = %7
  %12 = load ptr, ptr %3, align 8, !tbaa !49
  %13 = load i32, ptr %5, align 4, !tbaa !10
  %14 = sext i32 %13 to i64
  %15 = getelementptr inbounds %struct.DigColaLevel, ptr %12, i64 %14
  %16 = getelementptr inbounds nuw %struct.DigColaLevel, ptr %15, i32 0, i32 1
  %17 = load i32, ptr %16, align 8, !tbaa !85
  %18 = load ptr, ptr %3, align 8, !tbaa !49
  %19 = load i32, ptr %5, align 4, !tbaa !10
  %20 = sub nsw i32 %19, 1
  %21 = sext i32 %20 to i64
  %22 = getelementptr inbounds %struct.DigColaLevel, ptr %18, i64 %21
  %23 = getelementptr inbounds nuw %struct.DigColaLevel, ptr %22, i32 0, i32 1
  %24 = load i32, ptr %23, align 8, !tbaa !85
  %25 = add nsw i32 %17, %24
  %26 = load i32, ptr %6, align 4, !tbaa !10
  %27 = add nsw i32 %26, %25
  store i32 %27, ptr %6, align 4, !tbaa !10
  br label %28

28:                                               ; preds = %11
  %29 = load i32, ptr %5, align 4, !tbaa !10
  %30 = add nsw i32 %29, 1
  store i32 %30, ptr %5, align 4, !tbaa !10
  br label %7, !llvm.loop !104

31:                                               ; preds = %7
  %32 = load ptr, ptr %3, align 8, !tbaa !49
  %33 = getelementptr inbounds %struct.DigColaLevel, ptr %32, i64 0
  %34 = getelementptr inbounds nuw %struct.DigColaLevel, ptr %33, i32 0, i32 1
  %35 = load i32, ptr %34, align 8, !tbaa !85
  %36 = load ptr, ptr %3, align 8, !tbaa !49
  %37 = load i32, ptr %4, align 4, !tbaa !10
  %38 = sub nsw i32 %37, 1
  %39 = sext i32 %38 to i64
  %40 = getelementptr inbounds %struct.DigColaLevel, ptr %36, i64 %39
  %41 = getelementptr inbounds nuw %struct.DigColaLevel, ptr %40, i32 0, i32 1
  %42 = load i32, ptr %41, align 8, !tbaa !85
  %43 = add nsw i32 %35, %42
  %44 = load i32, ptr %6, align 4, !tbaa !10
  %45 = add nsw i32 %44, %43
  store i32 %45, ptr %6, align 4, !tbaa !10
  %46 = load i32, ptr %6, align 4, !tbaa !10
  call void @llvm.lifetime.end.p0(i64 4, ptr %6) #9
  call void @llvm.lifetime.end.p0(i64 4, ptr %5) #9
  ret i32 %46
}