; Function Attrs: nofree norecurse nosync nounwind memory(argmem: read) uwtable
define i32 @get_num_digcola_constraints(ptr noundef readonly captures(none) %0, i32 noundef %1) local_unnamed_addr #6 {
  %invariant.gep = getelementptr i8, ptr %0, i64 -8
  %3 = icmp sgt i32 %1, 1
  br i1 %3, label %.lr.ph.preheader, label %._crit_edge

.lr.ph.preheader:                                 ; preds = %2
  %wide.trip.count = zext nneg i32 %1 to i64
  br label %.lr.ph

.lr.ph:                                           ; preds = %.lr.ph.preheader, %.lr.ph
  %indvars.iv = phi i64 [ 1, %.lr.ph.preheader ], [ %indvars.iv.next, %.lr.ph ]
  %.015 = phi i32 [ 0, %.lr.ph.preheader ], [ %8, %.lr.ph ]
  %4 = getelementptr inbounds nuw %struct.DigColaLevel, ptr %0, i64 %indvars.iv, i32 1
  %5 = load i32, ptr %4, align 8, !tbaa !71
  %gep = getelementptr %struct.DigColaLevel, ptr %invariant.gep, i64 %indvars.iv
  %6 = load i32, ptr %gep, align 8, !tbaa !71
  %7 = add i32 %5, %.015
  %8 = add i32 %7, %6
  %indvars.iv.next = add nuw nsw i64 %indvars.iv, 1
  %exitcond.not = icmp eq i64 %indvars.iv.next, %wide.trip.count
  br i1 %exitcond.not, label %._crit_edge, label %.lr.ph, !llvm.loop !73

._crit_edge:                                      ; preds = %.lr.ph, %2
  %.0.lcssa = phi i32 [ 0, %2 ], [ %8, %.lr.ph ]
  %9 = getelementptr inbounds nuw i8, ptr %0, i64 8
  %10 = load i32, ptr %9, align 8, !tbaa !71
  %11 = sext i32 %1 to i64
  %12 = getelementptr %struct.DigColaLevel, ptr %0, i64 %11
  %13 = getelementptr i8, ptr %12, i64 -8
  %14 = load i32, ptr %13, align 8, !tbaa !71
  %15 = add i32 %10, %.0.lcssa
  %16 = add i32 %15, %14
  ret i32 %16
}